target datalayout = "e-m:e-p270:32:32-p271:32:32-p272:64:64-i64:64-i128:128-f80:128-n8:16:32:64-S128"
target triple = "x86_64-pc-linux-gnu"

@Curl_HMAC_SHA512_256 = hidden constant [1 x { ptr, ptr, ptr, i32, i32, i32, [4 x i8] }] [{ ptr, ptr, ptr, i32, i32, i32, [4 x i8] } { ptr @Curl_sha512_256_init, ptr @Curl_sha512_256_update_i, ptr @Curl_sha512_256_finish_v, i32 8, i32 128, i32 32, [4 x i8] zeroinitializer }], align 16

; Function Attrs: nounwind uwtable
define hidden i32 @Curl_sha512_256it(ptr noundef %0, ptr noundef %1, i64 noundef %2) #0 {
  %4 = alloca i32, align 4
  %5 = alloca ptr, align 8
  %6 = alloca ptr, align 8
  %7 = alloca i64, align 8
  %8 = alloca ptr, align 8
  %9 = alloca i32, align 4
  %10 = alloca i32, align 4
  store ptr %0, ptr %5, align 8, !tbaa !3
  store ptr %1, ptr %6, align 8, !tbaa !3
  store i64 %2, ptr %7, align 8, !tbaa !8
  call void @llvm.lifetime.start.p0(i64 8, ptr %8) #3
  call void @llvm.lifetime.start.p0(i64 4, ptr %9) #3
  %11 = call i32 @Curl_sha512_256_init(ptr noundef %8)
  store i32 %11, ptr %9, align 4, !tbaa !10
  %12 = load i32, ptr %9, align 4, !tbaa !10
  %13 = icmp ne i32 %12, 0
  br i1 %13, label %14, label %16

14:                                               ; preds = %3
  %15 = load i32, ptr %9, align 4, !tbaa !10
  store i32 %15, ptr %4, align 4
  store i32 1, ptr %10, align 4
  br label %29

16:                                               ; preds = %3
  %17 = load ptr, ptr %6, align 8, !tbaa !3
  %18 = load i64, ptr %7, align 8, !tbaa !8
  %19 = call i32 @Curl_sha512_256_update(ptr noundef %8, ptr noundef %17, i64 noundef %18)
  store i32 %19, ptr %9, align 4, !tbaa !10
  %20 = load i32, ptr %9, align 4, !tbaa !10
  %21 = icmp ne i32 %20, 0
  br i1 %21, label %22, label %26

22:                                               ; preds = %16
  %23 = load ptr, ptr %5, align 8, !tbaa !3
  %24 = call i32 @Curl_sha512_256_finish(ptr noundef %23, ptr noundef %8)
  %25 = load i32, ptr %9, align 4, !tbaa !10
  store i32 %25, ptr %4, align 4
  store i32 1, ptr %10, align 4
  br label %29

26:                                               ; preds = %16
  %27 = load ptr, ptr %5, align 8, !tbaa !3
  %28 = call i32 @Curl_sha512_256_finish(ptr noundef %27, ptr noundef %8)
  store i32 %28, ptr %4, align 4
  store i32 1, ptr %10, align 4
  br label %29

29:                                               ; preds = %26, %22, %14
  call void @llvm.lifetime.end.p0(i64 4, ptr %9) #3
  call void @llvm.lifetime.end.p0(i64 8, ptr %8) #3
  %30 = load i32, ptr %4, align 4
  ret i32 %30
}

; Function Attrs: nocallback nofree nosync nounwind willreturn memory(argmem: readwrite)
declare void @llvm.lifetime.start.p0(i64 immarg, ptr captures(none)) #1

; Function Attrs: nounwind uwtable
define internal i32 @Curl_sha512_256_init(ptr noundef %0) #0 {
  %2 = alloca i32, align 4
  %3 = alloca ptr, align 8
  %4 = alloca ptr, align 8
  %5 = alloca i32, align 4
  store ptr %0, ptr %3, align 8, !tbaa !12
  call void @llvm.lifetime.start.p0(i64 8, ptr %4) #3
  %6 = load ptr, ptr %3, align 8, !tbaa !12
  store ptr %6, ptr %4, align 8, !tbaa !13
  %7 = call ptr @EVP_MD_CTX_new()
  %8 = load ptr, ptr %4, align 8, !tbaa !13
  store ptr %7, ptr %8, align 8, !tbaa !15
  %9 = load ptr, ptr %4, align 8, !tbaa !13
  %10 = load ptr, ptr %9, align 8, !tbaa !15
  %11 = icmp ne ptr %10, null
  br i1 %11, label %13, label %12

12:                                               ; preds = %1
  store i32 27, ptr %2, align 4
  store i32 1, ptr %5, align 4
  br label %29

13:                                               ; preds = %1
  %14 = load ptr, ptr %4, align 8, !tbaa !13
  %15 = load ptr, ptr %14, align 8, !tbaa !15
  %16 = call ptr @EVP_sha512_256()
  %17 = call i32 @EVP_DigestInit_ex(ptr noundef %15, ptr noundef %16, ptr noundef null)
  %18 = icmp ne i32 %17, 0
  br i1 %18, label %19, label %26

19:                                               ; preds = %13
  br label %20

20:                                               ; preds = %19
  br label %21

21:                                               ; preds = %20
  br label %22

22:                                               ; preds = %21
  br label %23

23:                                               ; preds = %22
  br label %24

24:                                               ; preds = %23
  br label %25

25:                                               ; preds = %24
  store i32 0, ptr %2, align 4
  store i32 1, ptr %5, align 4
  br label %29

26:                                               ; preds = %13
  %27 = load ptr, ptr %4, align 8, !tbaa !13
  %28 = load ptr, ptr %27, align 8, !tbaa !15
  call void @EVP_MD_CTX_free(ptr noundef %28)
  store i32 2, ptr %2, align 4
  store i32 1, ptr %5, align 4
  br label %29

29:                                               ; preds = %26, %25, %12
  call void @llvm.lifetime.end.p0(i64 8, ptr %4) #3
  %30 = load i32, ptr %2, align 4
  ret i32 %30
}

; Function Attrs: nounwind uwtable
define internal i32 @Curl_sha512_256_update(ptr noundef %0, ptr noundef %1, i64 noundef %2) #0 {
  %4 = alloca i32, align 4
  %5 = alloca ptr, align 8
  %6 = alloca ptr, align 8
  %7 = alloca i64, align 8
  %8 = alloca ptr, align 8
  %9 = alloca i32, align 4
  store ptr %0, ptr %5, align 8, !tbaa !12
  store ptr %1, ptr %6, align 8, !tbaa !3
  store i64 %2, ptr %7, align 8, !tbaa !8
  call void @llvm.lifetime.start.p0(i64 8, ptr %8) #3
  %10 = load ptr, ptr %5, align 8, !tbaa !12
  store ptr %10, ptr %8, align 8, !tbaa !13
  %11 = load ptr, ptr %8, align 8, !tbaa !13
  %12 = load ptr, ptr %11, align 8, !tbaa !15
  %13 = load ptr, ptr %6, align 8, !tbaa !3
  %14 = load i64, ptr %7, align 8, !tbaa !8
  %15 = call i32 @EVP_DigestUpdate(ptr noundef %12, ptr noundef %13, i64 noundef %14)
  %16 = icmp ne i32 %15, 0
  br i1 %16, label %18, label %17

17:                                               ; preds = %3
  store i32 59, ptr %4, align 4
  store i32 1, ptr %9, align 4
  br label %19

18:                                               ; preds = %3
  store i32 0, ptr %4, align 4
  store i32 1, ptr %9, align 4
  br label %19

19:                                               ; preds = %18, %17
  call void @llvm.lifetime.end.p0(i64 8, ptr %8) #3
  %20 = load i32, ptr %4, align 4
  ret i32 %20
}

; Function Attrs: nounwind uwtable
define internal i32 @Curl_sha512_256_finish(ptr noundef %0, ptr noundef %1) #0 {
  %3 = alloca ptr, align 8
  %4 = alloca ptr, align 8
  %5 = alloca i32, align 4
  %6 = alloca ptr, align 8
  store ptr %0, ptr %3, align 8, !tbaa !3
  store ptr %1, ptr %4, align 8, !tbaa !12
  call void @llvm.lifetime.start.p0(i64 4, ptr %5) #3
  call void @llvm.lifetime.start.p0(i64 8, ptr %6) #3
  %7 = load ptr, ptr %4, align 8, !tbaa !12
  store ptr %7, ptr %6, align 8, !tbaa !13
  %8 = load ptr, ptr %6, align 8, !tbaa !13
  %9 = load ptr, ptr %8, align 8, !tbaa !15
  %10 = load ptr, ptr %3, align 8, !tbaa !3
  %11 = call i32 @EVP_DigestFinal_ex(ptr noundef %9, ptr noundef %10, ptr noundef null)
  %12 = icmp ne i32 %11, 0
  %13 = select i1 %12, i32 0, i32 59
  store i32 %13, ptr %5, align 4, !tbaa !10
  %14 = load ptr, ptr %6, align 8, !tbaa !13
  %15 = load ptr, ptr %14, align 8, !tbaa !15
  call void @EVP_MD_CTX_free(ptr noundef %15)
  %16 = load ptr, ptr %6, align 8, !tbaa !13
  store ptr null, ptr %16, align 8, !tbaa !15
  %17 = load i32, ptr %5, align 4, !tbaa !10
  call void @llvm.lifetime.end.p0(i64 8, ptr %6) #3
  call void @llvm.lifetime.end.p0(i64 4, ptr %5) #3
  ret i32 %17
}

; Function Attrs: nocallback nofree nosync nounwind willreturn memory(argmem: readwrite)
declare void @llvm.lifetime.end.p0(i64 immarg, ptr captures(none)) #1

; Function Attrs: nounwind uwtable
define internal void @Curl_sha512_256_update_i(ptr noundef %0, ptr noundef %1, i32 noundef %2) #0 {
  %4 = alloca ptr, align 8
  %5 = alloca ptr, align 8
  %6 = alloca i32, align 4
  store ptr %0, ptr %4, align 8, !tbaa !12
  store ptr %1, ptr %5, align 8, !tbaa !3
  store i32 %2, ptr %6, align 4, !tbaa !10
  %7 = load ptr, ptr %4, align 8, !tbaa !12
  %8 = load ptr, ptr %5, align 8, !tbaa !3
  %9 = load i32, ptr %6, align 4, !tbaa !10
  %10 = zext i32 %9 to i64
  %11 = call i32 @Curl_sha512_256_update(ptr noundef %7, ptr noundef %8, i64 noundef %10)
  ret void
}

; Function Attrs: nounwind uwtable
define internal void @Curl_sha512_256_finish_v(ptr noundef %0, ptr noundef %1) #0 {
  %3 = alloca ptr, align 8
  %4 = alloca ptr, align 8
  store ptr %0, ptr %3, align 8, !tbaa !3
  store ptr %1, ptr %4, align 8, !tbaa !12
  %5 = load ptr, ptr %3, align 8, !tbaa !3
  %6 = load ptr, ptr %4, align 8, !tbaa !12
  %7 = call i32 @Curl_sha512_256_finish(ptr noundef %5, ptr noundef %6)
  ret void
}

declare ptr @EVP_MD_CTX_new() #2

declare i32 @EVP_DigestInit_ex(ptr noundef, ptr noundef, ptr noundef) #2

declare ptr @EVP_sha512_256() #2

declare void @EVP_MD_CTX_free(ptr noundef) #2

declare i32 @EVP_DigestUpdate(ptr noundef, ptr noundef, i64 noundef) #2

declare i32 @EVP_DigestFinal_ex(ptr noundef, ptr noundef, ptr noundef) #2


!llvm.module.flags = !{!0, !1, !2}

!0 = !{i32 1, !"wchar_size", i32 4}
!1 = !{i32 8, !"PIC Level", i32 2}
!2 = !{i32 7, !"uwtable", i32 2}
!3 = !{!4, !4, i64 0}
!4 = !{!"p1 omnipotent char", !5, i64 0}
!5 = !{!"any pointer", !6, i64 0}
!6 = !{!"omnipotent char", !7, i64 0}
!7 = !{!"Simple C/C++ TBAA"}
!8 = !{!9, !9, i64 0}
!9 = !{!"long", !6, i64 0}
!10 = !{!11, !11, i64 0}
!11 = !{!"int", !6, i64 0}
!12 = !{!5, !5, i64 0}
!13 = !{!14, !14, i64 0}
!14 = !{!"p2 _ZTS13evp_md_ctx_st", !5, i64 0}
!15 = !{!16, !16, i64 0}
!16 = !{!"p1 _ZTS13evp_md_ctx_st", !5, i64 0}
